target datalayout = "e-m:e-p270:32:32-p271:32:32-p272:64:64-i64:64-i128:128-f80:128-n8:16:32:64-S128"
target triple = "x86_64-unknown-linux-gnu"

%"class.QuantLib::Date" = type { i64 }

@_ZZN8QuantLib4Date11monthOffsetENS_5MonthEbE11MonthOffset = internal constant [13 x i32] [i32 0, i32 31, i32 59, i32 90, i32 120, i32 151, i32 181, i32 212, i32 243, i32 273, i32 304, i32 334, i32 365], align 16
@_ZZN8QuantLib4Date11monthOffsetENS_5MonthEbE15MonthLeapOffset = internal constant [13 x i32] [i32 0, i32 31, i32 60, i32 91, i32 121, i32 152, i32 182, i32 213, i32 244, i32 274, i32 305, i32 335, i32 366], align 16

; Function Attrs: mustprogress nounwind uwtable
define noundef i64 @_ZN8QuantLib4Date10yearOffsetEi(i32 noundef %y) #4 align 2 {
entry:
  %y.addr = alloca i32, align 4
  store i32 %y, ptr %y.addr, align 4, !tbaa !11
  %0 = load i32, ptr %y.addr, align 4, !tbaa !11
  %sub = sub nsw i32 %0, 1900
  %idxprom = sext i32 %sub to i64
  %arrayidx = getelementptr inbounds [301 x i64], ptr @_ZZN8QuantLib4Date10yearOffsetEiE10YearOffset, i64 0, i64 %idxprom
  %1 = load i64, ptr %arrayidx, align 8, !tbaa !10
  ret i64 %1
}

; Function Attrs: mustprogress nounwind uwtable
define noundef i32 @_ZN8QuantLib4Date11monthOffsetENS_5MonthEb(i32 noundef %m, i1 noundef zeroext %leapYear) #4 align 2 {
entry:
  %m.addr = alloca i32, align 4
  %leapYear.addr = alloca i8, align 1
  store i32 %m, ptr %m.addr, align 4, !tbaa !13
  %storedv = zext i1 %leapYear to i8
  store i8 %storedv, ptr %leapYear.addr, align 1, !tbaa !15
  %0 = load i8, ptr %leapYear.addr, align 1, !tbaa !15, !range !17, !noundef !18
  %loadedv = trunc i8 %0 to i1
  br i1 %loadedv, label %cond.true, label %cond.false

cond.true:                                        ; preds = %entry
  %1 = load i32, ptr %m.addr, align 4, !tbaa !13
  %sub = sub nsw i32 %1, 1
  %idxprom = sext i32 %sub to i64
  %arrayidx = getelementptr inbounds [13 x i32], ptr @_ZZN8QuantLib4Date11monthOffsetENS_5MonthEbE15MonthLeapOffset, i64 0, i64 %idxprom
  %2 = load i32, ptr %arrayidx, align 4, !tbaa !11
  br label %cond.end

cond.false:                                       ; preds = %entry
  %3 = load i32, ptr %m.addr, align 4, !tbaa !13
  %sub1 = sub nsw i32 %3, 1
  %idxprom2 = sext i32 %sub1 to i64
  %arrayidx3 = getelementptr inbounds [13 x i32], ptr @_ZZN8QuantLib4Date11monthOffsetENS_5MonthEbE11MonthOffset, i64 0, i64 %idxprom2
  %4 = load i32, ptr %arrayidx3, align 4, !tbaa !11
  br label %cond.end

cond.end:                                         ; preds = %cond.false, %cond.true
  %cond = phi i32 [ %2, %cond.true ], [ %4, %cond.false ]
  ret i32 %cond
}

; Function Attrs: mustprogress uwtable
define noundef i32 @_ZNK8QuantLib4Date4yearEv(ptr noundef nonnull align 8 dereferenceable(8) %this) #5 align 2 {
entry:
  %this.addr = alloca ptr, align 8
  %y = alloca i32, align 4
  store ptr %this, ptr %this.addr, align 8, !tbaa !3
  %this1 = load ptr, ptr %this.addr, align 8
  call void @llvm.lifetime.start.p0(i64 4, ptr %y) #3
  %serialNumber_ = getelementptr inbounds nuw %"class.QuantLib::Date", ptr %this1, i32 0, i32 0
  %0 = load i64, ptr %serialNumber_, align 8, !tbaa !7
  %div = sdiv i64 %0, 365
  %add = add nsw i64 %div, 1900
  %conv = trunc i64 %add to i32
  store i32 %conv, ptr %y, align 4, !tbaa !11
  %serialNumber_2 = getelementptr inbounds nuw %"class.QuantLib::Date", ptr %this1, i32 0, i32 0
  %1 = load i64, ptr %serialNumber_2, align 8, !tbaa !7
  %2 = load i32, ptr %y, align 4, !tbaa !11
  %call = call noundef i64 @_ZN8QuantLib4Date10yearOffsetEi(i32 noundef %2)
  %cmp = icmp sle i64 %1, %call
  br i1 %cmp, label %if.then, label %if.end

if.then:                                          ; preds = %entry
  %3 = load i32, ptr %y, align 4, !tbaa !11
  %dec = add nsw i32 %3, -1
  store i32 %dec, ptr %y, align 4, !tbaa !11
  br label %if.end

if.end:                                           ; preds = %if.then, %entry
  %4 = load i32, ptr %y, align 4, !tbaa !11
  call void @llvm.lifetime.end.p0(i64 4, ptr %y) #3
  ret i32 %4
}

; Function Attrs: inlinehint mustprogress uwtable
define linkonce_odr noundef i32 @_ZNK8QuantLib4Date9dayOfYearEv(ptr noundef nonnull align 8 dereferenceable(8) %this) #7 comdat align 2 {
entry:
  %this.addr = alloca ptr, align 8
  store ptr %this, ptr %this.addr, align 8, !tbaa !3
  %this1 = load ptr, ptr %this.addr, align 8
  %serialNumber_ = getelementptr inbounds nuw %"class.QuantLib::Date", ptr %this1, i32 0, i32 0
  %0 = load i64, ptr %serialNumber_, align 8, !tbaa !7
  %call = call noundef i32 @_ZNK8QuantLib4Date4yearEv(ptr noundef nonnull align 8 dereferenceable(8) %this1)
  %call2 = call noundef i64 @_ZN8QuantLib4Date10yearOffsetEi(i32 noundef %call)
  %sub = sub nsw i64 %0, %call2
  %conv = trunc i64 %sub to i32
  ret i32 %conv
}

; Function Attrs: mustprogress uwtable
define noundef i32 @_ZNK8QuantLib4Date5monthEv(ptr noundef nonnull align 8 dereferenceable(8) %this) #5 align 2 {
entry:
  %this.addr = alloca ptr, align 8
  %d = alloca i32, align 4
  %m = alloca i32, align 4
  %leap = alloca i8, align 1
  store ptr %this, ptr %this.addr, align 8, !tbaa !3
  %this1 = load ptr, ptr %this.addr, align 8
  call void @llvm.lifetime.start.p0(i64 4, ptr %d) #3
  %call = call noundef i32 @_ZNK8QuantLib4Date9dayOfYearEv(ptr noundef nonnull align 8 dereferenceable(8) %this1)
  store i32 %call, ptr %d, align 4, !tbaa !11
  call void @llvm.lifetime.start.p0(i64 4, ptr %m) #3
  %0 = load i32, ptr %d, align 4, !tbaa !11
  %div = sdiv i32 %0, 30
  %add = add nsw i32 %div, 1
  store i32 %add, ptr %m, align 4, !tbaa !11
  call void @llvm.lifetime.start.p0(i64 1, ptr %leap) #3
  %call2 = call noundef i32 @_ZNK8QuantLib4Date4yearEv(ptr noundef nonnull align 8 dereferenceable(8) %this1)
  %call3 = call noundef zeroext i1 @_ZN8QuantLib4Date6isLeapEi(i32 noundef %call2)
  %storedv = zext i1 %call3 to i8
  store i8 %storedv, ptr %leap, align 1, !tbaa !15
  br label %while.cond

while.cond:                                       ; preds = %while.body, %entry
  %1 = load i32, ptr %d, align 4, !tbaa !11
  %2 = load i32, ptr %m, align 4, !tbaa !11
  %3 = load i8, ptr %leap, align 1, !tbaa !15, !range !17, !noundef !18
  %loadedv = trunc i8 %3 to i1
  %call4 = call noundef i32 @_ZN8QuantLib4Date11monthOffsetENS_5MonthEb(i32 noundef %2, i1 noundef zeroext %loadedv)
  %cmp = icmp sle i32 %1, %call4
  br i1 %cmp, label %while.body, label %while.end

while.body:                                       ; preds = %while.cond
  %4 = load i32, ptr %m, align 4, !tbaa !11
  %dec = add nsw i32 %4, -1
  store i32 %dec, ptr %m, align 4, !tbaa !11
  br label %while.cond, !llvm.loop !21

while.end:                                        ; preds = %while.cond
  br label %while.cond5

while.cond5:                                      ; preds = %while.body10, %while.end
  %5 = load i32, ptr %d, align 4, !tbaa !11
  %6 = load i32, ptr %m, align 4, !tbaa !11
  %add6 = add nsw i32 %6, 1
  %7 = load i8, ptr %leap, align 1, !tbaa !15, !range !17, !noundef !18
  %loadedv7 = trunc i8 %7 to i1
  %call8 = call noundef i32 @_ZN8QuantLib4Date11monthOffsetENS_5MonthEb(i32 noundef %add6, i1 noundef zeroext %loadedv7)
  %cmp9 = icmp sgt i32 %5, %call8
  br i1 %cmp9, label %while.body10, label %while.end11

while.body10:                                     ; preds = %while.cond5
  %8 = load i32, ptr %m, align 4, !tbaa !11
  %inc = add nsw i32 %8, 1
  store i32 %inc, ptr %m, align 4, !tbaa !11
  br label %while.cond5, !llvm.loop !23

while.end11:                                      ; preds = %while.cond5
  %9 = load i32, ptr %m, align 4, !tbaa !11
  call void @llvm.lifetime.end.p0(i64 1, ptr %leap) #3
  call void @llvm.lifetime.end.p0(i64 4, ptr %m) #3
  call void @llvm.lifetime.end.p0(i64 4, ptr %d) #3
  ret i32 %9
}