; Function Attrs: mustprogress uwtable
define noundef i32 @_ZNK8QuantLib4Date5monthEv(ptr nocapture noundef nonnull readonly align 8 dereferenceable(8) %this) local_unnamed_addr #4 align 2 {
entry:
  %0 = load i64, ptr %this, align 8, !tbaa !3
  %div.i.i = sdiv i64 %0, 365
  %sext.i.i = shl i64 %div.i.i, 32
  %idxprom.i.i.i = ashr exact i64 %sext.i.i, 32
  %arrayidx.i.i.i = getelementptr inbounds [301 x i64], ptr @_ZZN8QuantLib4Date10yearOffsetEiE10YearOffset, i64 0, i64 %idxprom.i.i.i
  %1 = load i64, ptr %arrayidx.i.i.i, align 8, !tbaa !16
  %cmp.not.i.i = icmp sgt i64 %0, %1
  %spec.select.v.i.i = select i1 %cmp.not.i.i, i64 1900, i64 1899
  %spec.select.i.i = add nsw i64 %spec.select.v.i.i, %div.i.i
  %sub.i.i = shl i64 %spec.select.i.i, 32
  %sext.i = add i64 %sub.i.i, -8160437862400
  %idxprom.i.i = ashr exact i64 %sext.i, 32
  %arrayidx.i.i = getelementptr inbounds [301 x i64], ptr @_ZZN8QuantLib4Date10yearOffsetEiE10YearOffset, i64 0, i64 %idxprom.i.i
  %2 = load i64, ptr %arrayidx.i.i, align 8, !tbaa !16
  %sub.i = sub nsw i64 %0, %2
  %conv.i = trunc i64 %sub.i to i32
  %div = sdiv i32 %conv.i, 30
  %3 = trunc i64 %div.i.i to i32
  %spec.select.v.i = select i1 %cmp.not.i.i, i32 1900, i32 1899
  %spec.select.i = add i32 %spec.select.v.i, %3
  %call3 = tail call noundef zeroext i1 @_ZN8QuantLib4Date6isLeapEi(i32 noundef %spec.select.i)
  %narrow33 = add nsw i32 %div, 1
  %4 = sext i32 %narrow33 to i64
  br i1 %call3, label %while.cond.us, label %while.cond

while.cond.us:                                    ; preds = %entry, %while.cond.us
  %indvars.iv24 = phi i64 [ %indvars.iv.next25, %while.cond.us ], [ %4, %entry ]
  %indvars.iv.next25 = add nsw i64 %indvars.iv24, -1
  %arrayidx.i.us = getelementptr inbounds [13 x i32], ptr @_ZZN8QuantLib4Date11monthOffsetENS_5MonthEbE15MonthLeapOffset, i64 0, i64 %indvars.iv.next25
  %cond.i.us = load i32, ptr %arrayidx.i.us, align 4, !tbaa !14
  %cmp.not.us = icmp slt i32 %cond.i.us, %conv.i
  br i1 %cmp.not.us, label %while.cond5.preheader, label %while.cond.us, !llvm.loop !26

while.cond:                                       ; preds = %entry, %while.cond
  %indvars.iv = phi i64 [ %indvars.iv.next, %while.cond ], [ %4, %entry ]
  %indvars.iv.next = add nsw i64 %indvars.iv, -1
  %arrayidx3.i = getelementptr inbounds [13 x i32], ptr @_ZZN8QuantLib4Date11monthOffsetENS_5MonthEbE11MonthOffset, i64 0, i64 %indvars.iv.next
  %cond.i = load i32, ptr %arrayidx3.i, align 4, !tbaa !14
  %cmp.not = icmp slt i32 %cond.i, %conv.i
  br i1 %cmp.not, label %while.cond5.preheader, label %while.cond, !llvm.loop !26

while.cond5.preheader:                            ; preds = %while.cond, %while.cond.us
  %.us-phi.in = phi i64 [ %indvars.iv24, %while.cond.us ], [ %indvars.iv, %while.cond ]
  %sext34 = shl i64 %.us-phi.in, 32
  %5 = ashr exact i64 %sext34, 32
  br i1 %call3, label %while.cond5.us, label %while.cond5

while.cond5.us:                                   ; preds = %while.cond5.preheader, %while.cond5.us
  %indvars.iv30 = phi i64 [ %indvars.iv.next31, %while.cond5.us ], [ %5, %while.cond5.preheader ]
  %indvars.iv.next31 = add nsw i64 %indvars.iv30, 1
  %arrayidx.i14.us = getelementptr inbounds [13 x i32], ptr @_ZZN8QuantLib4Date11monthOffsetENS_5MonthEbE15MonthLeapOffset, i64 0, i64 %indvars.iv30
  %cond.i17.us = load i32, ptr %arrayidx.i14.us, align 4, !tbaa !14
  %cmp9.us = icmp slt i32 %cond.i17.us, %conv.i
  br i1 %cmp9.us, label %while.cond5.us, label %while.end11, !llvm.loop !28

while.cond5:                                      ; preds = %while.cond5.preheader, %while.cond5
  %indvars.iv27 = phi i64 [ %indvars.iv.next28, %while.cond5 ], [ %5, %while.cond5.preheader ]
  %indvars.iv.next28 = add nsw i64 %indvars.iv27, 1
  %arrayidx3.i15 = getelementptr inbounds [13 x i32], ptr @_ZZN8QuantLib4Date11monthOffsetENS_5MonthEbE11MonthOffset, i64 0, i64 %indvars.iv27
  %cond.i17 = load i32, ptr %arrayidx3.i15, align 4, !tbaa !14
  %cmp9 = icmp slt i32 %cond.i17, %conv.i
  br i1 %cmp9, label %while.cond5, label %while.end11, !llvm.loop !28

while.end11:                                      ; preds = %while.cond5, %while.cond5.us
  %.us-phi19.in = phi i64 [ %indvars.iv30, %while.cond5.us ], [ %indvars.iv27, %while.cond5 ]
  %.us-phi19 = trunc i64 %.us-phi19.in to i32
  ret i32 %.us-phi19
}